(dp0
S'searchable'
p1
F5.127840208227514
sS'rob'
p2
F5.205755708121675
sS'apts'
p3
F9.556954879000298
sS'deadline'
p4
F4.343573123258046
sS'edu'
p5
F1.2401308412129322
sS'dish'
p6
F6.372966313132537
sS'widrow'
p7
F8.7948148269534
sS'row'
p8
F5.0877680688840154
sS'ballet'
p9
F6.698843983322354
sS'hunting'
p10
F6.784366156760516
sS'graph'
p11
F5.209445749209129
sS'courserank'
p12
F8.507132754501619
sS'gsb'
p13
F3.709690680866405
sS'program'
p14
F1.452683096368679
sS'cs244b'
p15
F9.89342711562151
sS'steve'
p16
F4.453610186799774
sS'school'
p17
F1.5565574783365541
sS'knight'
p18
F4.5891276773959255
sS'companies'
p19
F3.2704248695852742
sS'solution'
p20
F4.256496947953149
sS'assignments'
p21
F4.476438219355975
sS'fogg'
p22
F7.084024420259013
sS'stanfordwho'
p23
F3.699429971103443
sS'mo'
p24
F5.356535770386713
sS'opencourseware'
p25
F9.89342711562151
sS'fixit'
p26
F8.863807698440352
sS'pandu'
p27
F9.89342711562151
sS'pasu'
p28
F8.367370812126461
sS'video'
p29
F2.619086166592126
sS'specs'
p30
F7.172131687769279
sS'vmware'
p31
F7.343981944695939
sS'cs255'
p32
F10.4042527393875
sS'certificates'
p33
F6.519258406347274
sS'international'
p34
F2.121179789999105
sS'med'
p35
F4.804596973940197
sS'flo'
p36
F7.891947115411386
sS'exchange'
p37
F4.302440135110653
sS'avery'
p38
F6.868136039825974
sS'hours'
p39
F2.9662614431195498
sS'explore'
p40
F3.2447016665179915
sS'studio'
p41
F5.082870099908468
sS'lev'
p42
F6.122967674515151
sS'jure'
p43
F6.715373285273564
sS'graduates'
p44
F4.961835028865707
sS'change'
p45
F2.804350780179002
sS'alto'
p46
F3.862261201661976
sS'search'
p47
F0.9909443129004832
sS'dembo'
p48
F8.28398920318741
sS'30'
p49
F2.232088287275597
sS'lambertus'
p50
F8.411822574697295
sS'coho'
p51
F7.49553184282314
sS'clark'
p52
F4.631773733445065
sS'mscs'
p53
F9.01795837826761
sS'levoy'
p54
F6.109237481703249
sS'backrub'
p55
F11.502865028055611
sS'webmail'
p56
F5.942183397040083
sS'genomics'
p57
F5.503928466108928
sS'vlsi'
p58
F6.547037970454349
sS'live'
p59
F4.075720894646995
sS'annaud'
p60
F10.809717847495666
sS'6'
p61
F2.034631912438399
sS'minor'
p62
F4.25863751245226
sS'cs224w'
p63
F8.73027630581583
sS'club'
p64
F4.06978967915703
sS'econ'
p65
F4.988152337183081
sS'award'
p66
F3.3538411600038405
sS'it'
p67
F1.3757940209768873
sS'admissions'
p68
F2.621445476547806
sS'linkedin'
p69
F4.44841536992267
sS'cs224n'
p70
F8.612493270159446
sS'hour'
p71
F3.779744935789279
sS'science'
p72
F1.8316248410831628
sS'challenge'
p73
F4.178375048707078
sS'printing'
p74
F4.748260928567648
sS'ms'
p75
F3.630791048188737
sS'cal'
p76
F5.565328822973184
sS'my'
p77
F2.472488993299704
sS'process'
p78
F2.9302371297512724
sS'tax'
p79
F4.7071592528820965
sS'information'
p80
F1.21173695232387
sS'gcc'
p81
F6.512432441276874
sS'requirements'
p82
F2.8586868248848845
sS'positional'
p83
F8.068877823570464
sS'maps'
p84
F2.1086210181028218
sS'stanfordnlp'
p85
F11.502865028055611
sS'quillen'
p86
F8.612493270159446
sS'cs210'
p87
F9.556954879000298
sS'afs'
p88
F5.310502538580739
sS'lam'
p89
F6.402998600231412
sS'buildings'
p90
F4.479996941972969
sS'kenpo'
p91
F8.458342590332187
sS'turing'
p92
F6.830036193593704
sS'lab'
p93
F2.532178759520627
sS'faculty'
p94
F1.378115693623291
sS'ethics'
p95
F4.330440450930765
sS'law'
p96
F2.38179312383761
sS'data'
p97
F2.039434028397266
sS'leskovec'
p98
F6.723741534944081
sS'bing'
p99
F4.434693027667569
sS'claire'
p100
F6.29337887521419
sS'green'
p101
F3.020677445838188
sS'nvidia'
p102
F6.512432441276874
sS'retrieval'
p103
F5.822692419038543
sS'amir'
p104
F6.082330028783325
sS'marguerite'
p105
F5.035166301951257
sS'course'
p106
F2.6065507038708104
sS'tagger'
p107
F8.612493270159446
sS'statistical'
p108
F4.688322130795652
sS'machine'
p109
F4.062131320666349
sS'tressider'
p110
F7.268758523458351
sS'monitor'
p111
F5.0167042391115215
sS'platform'
p112
F4.411955205975627
sS'hutchin'
p113
F9.556954879000298
sS'mail'
p114
F2.2185309761711016
sS'2010'
p115
F2.1122886057764947
sS'2013'
p116
F4.540621563789403
sS'return'
p117
F3.0325538225395032
sS'finance'
p118
F3.8222276004946747
sS'ee364a'
p119
F8.00635746658913
sS'hall'
p120
F2.728861427854679
sS'masters'
p121
F4.847424677687963
sS'university'
p122
F0.5571591870475368
sS'merge'
p123
F6.568391094924919
sS'token'
p124
F7.133417175588589
sS'habits'
p125
F6.784366156760516
sS'meal'
p126
F6.298858340978815
sS'financial'
p127
F3.055665208459908
sS'306b'
p128
F10.4042527393875
sS'ee'
p129
F4.668756289241772
sS'list'
p130
F2.027932106852679
sS'webinar'
p131
F7.096145780791357
sS'society'
p132
F3.0934797892736783
sS'gates'
p133
F4.511688140934401
sS'motwani'
p134
F8.068877823570464
sS'ir'
p135
F5.411555145977912
sS'ousterhout'
p136
F8.135569198069136
sS'jackson'
p137
F4.649565934869532
sS'network'
p138
F2.9588351826858132
sS'sentiment'
p139
F7.590842022627465
sS'spcd'
p140
F10.809717847495666
sS'research'
p141
F1.0821623084318233
sS'fellowship'
p142
F3.5218152683896538
sS'internet'
p143
F3.435402361045553
sS'windsurfing'
p144
F7.551621309474183
sS'math'
p145
F4.129490718145562
sS'branner'
p146
F4.754105480563931
sS'free'
p147
F2.651917576085209
sS'diagnostic'
p148
F5.284264908363881
sS'arrillaga'
p149
F5.491597853651449
sS'care'
p150
F3.0038358072670444
sS'startx'
p151
F6.90774517792102
sS'interaction'
p152
F4.11515578897457
sS'grad'
p153
F4.740135521123731
sS'raghavan'
p154
F8.244768490034128
sS'listings'
p155
F5.391397688552932
sS'xiaoye'
p156
F7.571039395331285
sS'david'
p157
F2.958251241063381
sS'cs262'
p158
F10.809717847495666
sS'massive'
p159
F5.7924380106807405
sS'museum'
p160
F4.5501363834307424
sS'major'
p161
F3.021506289648589
sS'graduate'
p162
F2.0705017324339208
sS'cs231b'
p163
F11.502865028055611
sS'koller'
p164
F6.793334826743276
sS'spanish'
p165
F4.855176654492281
sS'open'
p166
F2.5028753855948853
sS'sheet'
p167
F4.691620649454317
sS'tibshirani'
p168
F7.212405586907219
sS'master'
p169
F4.320512916170348
sS'john'
p170
F2.761249103826783
sS'bechtel'
p171
F4.4144562493802155
sS'mining'
p172
F5.670982550772093
sS'gear'
p173
F6.321081477763525
sS'dschool'
p174
F7.813985573941674
sS'gym'
p175
F7.072048229212297
sS'coursera'
p176
F10.809717847495666
sS'gin'
p177
F8.863807698440352
sS'database'
p178
F3.1517264209694558
sS'tree'
p179
F4.369569073159542
sS'classes'
p180
F3.2805799541828935
sS'skilling'
p181
F6.723741534944081
sS'interactive'
p182
F4.229078710210716
sS'and'
p183
F0.2169781903684767
sS'explorecourses'
p184
F5.356535770386713
sS'selfop'
p185
F11.502865028055611
sS'kevin'
p186
F4.908451568305832
sS'form'
p187
F2.5964716209972436
sS'dining'
p188
F4.666605750778543
sS'cantor'
p189
F4.828303636241184
sS'online'
p190
F2.498565299493975
sS'ezproxy'
p191
F9.10496975525724
sS'scpd'
p192
F5.938344620732917
sS'axess'
p193
F4.038928423586685
sS'cs194'
p194
F9.556954879000298
sS'track'
p195
F3.875320637567107
sS'who'
p196
F2.0631604929521616
sS'quota'
p197
F7.198799934851441
sS'plan'
p198
F3.238501698323943
sS'sheets'
p199
F5.706807277290238
sS'services'
p200
F2.1986700806078034
sS'class'
p201
F2.552332191765229
sS'salary'
p202
F5.633568114921836
sS'latex'
p203
F5.961601482897184
sS'curis'
p204
F8.937915670594073
sS'professor'
p205
F2.354825682276807
sS'alumni'
p206
F1.8442555189796983
sS'drive'
p207
F3.797152204161183
sS'cs229'
p208
F8.411822574697295
sS'cs228'
p209
F10.4042527393875
sS'professional'
p210
F3.392137445081121
sS'physics'
p211
F2.7577397685933662
sS'bulletin'
p212
F3.8550789826146774
sS'nlp'
p213
F6.136889013033759
sS'aquatic'
p214
F6.5330517284796095
sS'certification'
p215
F5.427518996966926
sS'vaden'
p216
F5.616760996605454
sS'radio'
p217
F4.674152956413926
sS'fear'
p218
F6.298858340978815
sS'staff'
p219
F1.5932463095892422
sS'hesselink'
p220
F8.244768490034128
sS'bernard'
p221
F6.287929270446625
sS'monica'
p222
F5.52145081680113
sS'beat'
p223
F6.343809728841081
sS'neuroimaging'
p224
F6.830036193593704
sS'mehran'
p225
F7.532573114503489
sS'christopher'
p226
F4.717277383047681
sS'ldm'
p227
F11.502865028055611
sS'cs124'
p228
F10.4042527393875
sS'liu'
p229
F5.231876596197311
sS'ughb'
p230
F8.458342590332187
sS'undergrad'
p231
F4.859075294907938
sS'bay'
p232
F3.862741855360247
sS'cdc'
p233
F5.427518996966926
sS'y2e2'
p234
F5.365137973969376
sS'wiki'
p235
F4.315964007643979
sS'concert'
p236
F5.427518996966926
sS'intelligence'
p237
F4.535897889441627
sS'manning'
p238
F6.146278753383598
sS'computer'
p239
F2.3772114642466216
sS'parking'
p240
F4.1288631687054504
sS'calendar'
p241
F2.0683416451905554
sS'best'
p242
F3.1607397647220195
sS'stats'
p243
F5.953788943160391
sS'cs155'
p244
F8.507132754501619
sS'artificial'
p245
F4.68284866338148
sS'365'
p246
F5.207599026615964
sS'email'
p247
F1.5901204542568057
sS'jobs'
p248
F3.40940275355443
sS'exam'
p249
F5.0182297924203585
sS'rajeev'
p250
F7.765195409772242
sS'bosp'
p251
F7.741664912362048
sS'job'
p252
F3.2418552420317828
sS'huang'
p253
F4.20306766129745
sS'meredith'
p254
F6.70707448245887
sS'mariachi'
p255
F8.411822574697295
sS'108'
p256
F5.7159676466889024
sS'connection'
p257
F4.520002276586668
sS'cs229t'
p258
F11.502865028055611
sS'login'
p259
F1.740250034400898
sS'etl'
p260
F7.003055357725345
sS'wall'
p261
F4.677404991800303
sS'robotics'
p262
F4.848712507872392
sS'pos'
p263
F7.084024420259013
sS'directions'
p264
F1.993605951701659
sS'learning'
p265
F2.9530110543998247
sS'cs'
p266
F3.5766235048846484
sS'undergraduate'
p267
F2.5507773845072053
sS'lyman'
p268
F6.0264014761241
sS'marc'
p269
F5.0182297924203585
sS'tiny'
p270
F6.100187646183331
sS'helicopter'
p271
F7.551621309474183
sS'cs276'
p272
F9.711105558827555
sS'468'
p273
F7.741664912362048
sS'300c'
p274
F9.556954879000298
sS'bmi'
p275
F7.198799934851441
sS'taube'
p276
F6.29337887521419
sS'andrew'
p277
F4.289096719936969
sS'textbook'
p278
F5.333254295564155
sS'161'
p279
F6.75793289969236
sS'sunet'
p280
F2.8843795851575007
sS'e40'
p281
F10.4042527393875
sS'myvideosu'
p282
F10.4042527393875
sS'career'
p283
F3.09593323089691
sS'aquatics'
p284
F9.01795837826761
sS'aid'
p285
F3.8366431023928853
sS'cemex'
p286
F6.6745512907533096
sS'sushi'
p287
F7.813985573941674
sS'site'
p288
F1.2297122715425055
sS'coterm'
p289
F6.155757497338142
sS'engr'
p290
F6.830036193593704
sS'design'
p291
F2.4989340084024723
sS'media'
p292
F2.5465140875647387
sS'icenter'
p293
F8.367370812126461
sS'quant'
p294
F8.207028162051282
sS'knuth'
p295
F7.096145780791357
sS'events'
p296
F1.3815681257959744
sS'status'
p297
F2.8085303398869605
sS'independent'
p298
F4.1903115299530125
sS'phd'
p299
F3.236957693899863
sS'chris'
p300
F4.277383555273316
sS'student'
p301
F1.8440639175101676
sS'jujitsu'
p302
F8.458342590332187
sS'climbing'
p303
F6.29337887521419
sS'center'
p304
F1.191648265758251
sS'programs'
p305
F1.7270404070096381
sS'coursework'
p306
F4.4169635636899995
sS'analysis'
p307
F2.7283974266090176
sS'microtext'
p308
F5.010625193035139
sS'academic'
p309
F2.3163051847448313
sS'contact'
p310
F0.730597726316379
sS'sets'
p311
F4.468477098140108
sS'the'
p312
F0.19118709155037208
sS'protege'
p313
F4.828303636241184
sS'summer'
p314
F3.0742844949959767
sS'outdoor'
p315
F5.644931873572151
sS'364a'
p316
F9.89342711562151
sS'human'
p317
F2.74712748874914
sS'ps1'
p318
F8.863807698440352
sS'addresses'
p319
F4.615312456390993
sS'web'
p320
F1.8965040067992631
sS'prabhakar'
p321
F7.49553184282314
sS'cs198'
p322
F10.11657066693572
sS'pharmacy'
p323
F6.009803584715062
sS'mcnamara'
p324
F7.765195409772242
sS'snap'
p325
F6.540020397795703
sS'homework'
p326
F4.989634917143303
sS'acsss'
p327
F7.45981376022106
sS'heer'
p328
F7.0142286583234705
sS'calypso'
p329
F8.863807698440352
sS'd'
p330
F2.2903270725359404
sS'cardinal'
p331
F4.785060333031919
sS'cs246'
p332
F8.863807698440352
sS'auditorium'
p333
F3.973458570218598
sS'google'
p334
F2.6663457588531307
sS'people'
p335
F1.5177974885270595
sS'spring'
p336
F3.3725114806243726
sS'cs227b'
p337
F9.89342711562151
sS'library'
p338
F1.8613918012226855
sS'donald'
p339
F5.119358393171605
sS'frisbee'
p340
F7.891947115411386
sS'palm'
p341
F5.157228667227015
sS'110'
p342
F5.216866933546745
sS'palo'
p343
F3.8699795226604774
sS'searchworks'
p344
F3.070576343729817
sS'for'
p345
F0.36419674406935326
sS'courses'
p346
F2.2417364892473226
sS'noon'
p347
F4.882791821525254
sS'420'
p348
F5.280288759984241
sS'biology'
p349
F3.2667093663724853
sS'schedule'
p350
F3.187543252678043
sS'corn'
p351
F6.749274836949246
sS'bj'
p352
F6.597590249617181
sS'tuition'
p353
F4.6297011938430925
sS'sulair'
p354
F2.858862989775677
sS'ontology'
p355
F4.7790325872344015
sS'by'
p356
F0.6265740938216421
sS'meyer'
p357
F4.5311964233298205
sS'cheriton'
p358
F7.590842022627465
sS'certificate'
p359
F5.284264908363881
sS'netflix'
p360
F8.170660517880407
sS'cs147'
p361
F9.01795837826761
sS'dollars'
p362
F5.763072115876376
sS'cs142'
p363
F9.01795837826761
sS'cs143'
p364
F9.01795837826761
sS'map'
p365
F1.9393357814255272
sS'software'
p366
F2.7540840385425005
sS'computational'
p367
F3.7565643658241714
sS'daphne'
p368
F6.811517145826467
sS'area'
p369
F2.460115248273388
sS'housing'
p370
F4.169842013669129
sS'tennis'
p371
F6.332381033017459
sS'deadlines'
p372
F4.718407965417967
sS'bios'
p373
F6.170146234790241
sS'handbook'
p374
F4.390537583344699
sS'stsa'
p375
F10.4042527393875
sS'biox'
p376
F7.120838393381729
sS'sahami'
p377
F7.513880981491336
sS'boyd'
p378
F6.2611180129959685
sS'560'
p379
F7.120838393381729
sS'murphy'
p380
F6.141572862346186
sS'hw'
p381
F6.235006868992282
sS'candes'
p382
F8.207028162051282
sS'bookstore'
p383
F5.506412939436589
sS'229'
p384
F6.897694842067519
sS'reset'
p385
F6.082330028783325
sS'stanford'
p386
F0.3295747967117297
sS'glassdoor'
p387
F10.809717847495666
sS'assu'
p388
F5.539285684437164
sS'stager'
p389
F8.55842604888917
sS'videos'
p390
F3.4806241112490737
sS'ai'
p391
F5.345886042470055
sS'cs379c'
p392
F10.809717847495666
sS'sublet'
p393
F10.809717847495666
sS'engineering'
p394
F2.1786603999303806
sS'at'
p395
F0.6653057663502403
sS'campus'
p396
F2.269394238690573
sS'cmos'
p397
F6.568391094924919
sS'ohs'
p398
F6.547037970454349
sS'mystanfordconnection'
p399
F9.711105558827555
sS'rains'
p400
F6.970265534902355
sS'40'
p401
F3.675624126302799
sS'ng'
p402
F5.4092952580104745
sS'application'
p403
F2.9701922657909865
sS'book'
p404
F2.5002871053553353
sS'papers'
p405
F2.637835841367845
sS'lsjumb'
p406
F7.8652788683292245
sS'students'
p407
F1.4354745042495458
sS'football'
p408
F6.235006868992282
sS'hcp'
p409
F8.324811197707664
sS'squash'
p410
F7.71867539413735
sS'cs107'
p411
F8.28398920318741
sS'stan'
p412
F6.409114827248848
sS'reservation'
p413
F5.7037723735950845
sS'finals'
p414
F6.013927301898924
sS'pool'
p415
F5.633568114921836
sS'building'
p416
F2.188254734903631
sS'biorobotics'
p417
F9.556954879000298
sS'algorithm'
p418
F4.451875580987566
sS'grading'
p419
F5.429820493955206
sS'directory'
p420
F2.313544023303503
sS'commencement'
p421
F5.010625193035139
s.